; Function Attrs: mustprogress nofree norecurse nosync nounwind memory(argmem: readwrite) uwtable
define hidden void @_ZN2cv12cpu_baseline10accW_simd_EPKtPdPKhiid(ptr noundef readonly captures(none) %0, ptr noundef captures(none) %1, ptr noundef readonly %2, i32 noundef %3, i32 noundef %4, double noundef %5) local_unnamed_addr #0 {
  %7 = fsub double 1.000000e+00, %5
  %.not.i = icmp eq ptr %2, null
  br i1 %.not.i, label %8, label %18

8:                                                ; preds = %6
  %9 = mul nsw i32 %4, %3
  %10 = icmp sgt i32 %9, 0
  br i1 %10, label %.lr.ph.preheader.i, label %_ZN2cv12cpu_baseline13accW_general_ItdEEvPKT_PT0_PKhiidi.exit

.lr.ph.preheader.i:                               ; preds = %8
  %wide.trip.count66.i = zext nneg i32 %9 to i64
  br label %.lr.ph.i

.lr.ph.i:                                         ; preds = %.lr.ph.i, %.lr.ph.preheader.i
  %indvars.iv63.i = phi i64 [ 0, %.lr.ph.preheader.i ], [ %indvars.iv.next64.i, %.lr.ph.i ]
  %11 = getelementptr inbounds nuw i16, ptr %0, i64 %indvars.iv63.i
  %12 = load i16, ptr %11, align 2, !tbaa !12
  %13 = uitofp i16 %12 to double
  %14 = getelementptr inbounds nuw double, ptr %1, i64 %indvars.iv63.i
  %15 = load double, ptr %14, align 8, !tbaa !20
  %16 = fmul double %7, %15
  %17 = tail call double @llvm.fmuladd.f64(double %13, double %5, double %16)
  store double %17, ptr %14, align 8, !tbaa !20
  %indvars.iv.next64.i = add nuw nsw i64 %indvars.iv63.i, 1
  %exitcond67.not.i = icmp eq i64 %indvars.iv.next64.i, %wide.trip.count66.i
  br i1 %exitcond67.not.i, label %_ZN2cv12cpu_baseline13accW_general_ItdEEvPKT_PT0_PKhiidi.exit, label %.lr.ph.i, !llvm.loop !88

18:                                               ; preds = %6
  %19 = icmp sgt i32 %3, 0
  br i1 %19, label %.lr.ph53.i, label %_ZN2cv12cpu_baseline13accW_general_ItdEEvPKT_PT0_PKhiidi.exit

.lr.ph53.i:                                       ; preds = %18
  %20 = icmp sgt i32 %4, 0
  %21 = sext i32 %4 to i64
  br i1 %20, label %.lr.ph53.split.us.preheader.i, label %_ZN2cv12cpu_baseline13accW_general_ItdEEvPKT_PT0_PKhiidi.exit

.lr.ph53.split.us.preheader.i:                    ; preds = %.lr.ph53.i
  %wide.trip.count61.i = zext nneg i32 %3 to i64
  %wide.trip.count.i = zext nneg i32 %4 to i64
  br label %.lr.ph53.split.us.i

.lr.ph53.split.us.i:                              ; preds = %..loopexit47_crit_edge.us.i, %.lr.ph53.split.us.preheader.i
  %indvars.iv58.i = phi i64 [ 0, %.lr.ph53.split.us.preheader.i ], [ %indvars.iv.next59.i, %..loopexit47_crit_edge.us.i ]
  %.04351.us.i = phi ptr [ %0, %.lr.ph53.split.us.preheader.i ], [ %31, %..loopexit47_crit_edge.us.i ]
  %.04450.us.i = phi ptr [ %1, %.lr.ph53.split.us.preheader.i ], [ %32, %..loopexit47_crit_edge.us.i ]
  %22 = getelementptr inbounds nuw i8, ptr %2, i64 %indvars.iv58.i
  %23 = load i8, ptr %22, align 1, !tbaa !3
  %.not46.us.i = icmp eq i8 %23, 0
  br i1 %.not46.us.i, label %..loopexit47_crit_edge.us.i, label %.preheader.us.i

.preheader.us.i:                                  ; preds = %.lr.ph53.split.us.i, %.preheader.us.i
  %indvars.iv.i = phi i64 [ %indvars.iv.next.i, %.preheader.us.i ], [ 0, %.lr.ph53.split.us.i ]
  %24 = getelementptr inbounds nuw i16, ptr %.04351.us.i, i64 %indvars.iv.i
  %25 = load i16, ptr %24, align 2, !tbaa !12
  %26 = uitofp i16 %25 to double
  %27 = getelementptr inbounds nuw double, ptr %.04450.us.i, i64 %indvars.iv.i
  %28 = load double, ptr %27, align 8, !tbaa !20
  %29 = fmul double %7, %28
  %30 = tail call double @llvm.fmuladd.f64(double %26, double %5, double %29)
  store double %30, ptr %27, align 8, !tbaa !20
  %indvars.iv.next.i = add nuw nsw i64 %indvars.iv.i, 1
  %exitcond.not.i = icmp eq i64 %indvars.iv.next.i, %wide.trip.count.i
  br i1 %exitcond.not.i, label %..loopexit47_crit_edge.us.i, label %.preheader.us.i, !llvm.loop !89

..loopexit47_crit_edge.us.i:                      ; preds = %.preheader.us.i, %.lr.ph53.split.us.i
  %indvars.iv.next59.i = add nuw nsw i64 %indvars.iv58.i, 1
  %31 = getelementptr inbounds nuw i16, ptr %.04351.us.i, i64 %21
  %32 = getelementptr inbounds nuw double, ptr %.04450.us.i, i64 %21
  %exitcond62.not.i = icmp eq i64 %indvars.iv.next59.i, %wide.trip.count61.i
  br i1 %exitcond62.not.i, label %_ZN2cv12cpu_baseline13accW_general_ItdEEvPKT_PT0_PKhiidi.exit, label %.lr.ph53.split.us.i, !llvm.loop !90

_ZN2cv12cpu_baseline13accW_general_ItdEEvPKT_PT0_PKhiidi.exit: ; preds = %..loopexit47_crit_edge.us.i, %.lr.ph.i, %8, %18, %.lr.ph53.i
  ret void
}